target datalayout = "e-m:e-p270:32:32-p271:32:32-p272:64:64-i64:64-i128:128-f80:128-n8:16:32:64-S128"
target triple = "x86_64-pc-linux-gnu"

%struct.RedisModuleCtx = type { ptr, ptr, ptr, ptr, ptr, i32, i32, i32, ptr, i32, ptr, ptr, ptr, ptr, i64, ptr }
%struct.RedisModule = type { ptr, ptr, i32, i32, ptr, ptr, ptr, ptr, ptr, i32, i32, i32, i32, i32, ptr, ptr, ptr, ptr, ptr, i32, i32, i64 }
%struct.RedisModuleCommandFilter = type { ptr, ptr, i32 }

@moduleCommandFilters = internal global ptr null, align 8

; Function Attrs: nounwind uwtable
define dso_local i32 @RM_UnregisterCommandFilter(ptr noundef %0, ptr noundef %1) #0 {
  %3 = alloca i32, align 4
  %4 = alloca ptr, align 8
  %5 = alloca ptr, align 8
  %6 = alloca ptr, align 8
  %7 = alloca i32, align 4
  store ptr %0, ptr %4, align 8, !tbaa !13
  store ptr %1, ptr %5, align 8, !tbaa !449
  call void @llvm.lifetime.start.p0(i64 8, ptr %6) #15
  %8 = load ptr, ptr %5, align 8, !tbaa !449
  %9 = getelementptr inbounds nuw %struct.RedisModuleCommandFilter, ptr %8, i32 0, i32 0
  %10 = load ptr, ptr %9, align 8, !tbaa !453
  %11 = load ptr, ptr %4, align 8, !tbaa !13
  %12 = getelementptr inbounds nuw %struct.RedisModuleCtx, ptr %11, i32 0, i32 1
  %13 = load ptr, ptr %12, align 8, !tbaa !102
  %14 = icmp ne ptr %10, %13
  br i1 %14, label %15, label %16

15:                                               ; preds = %2
  store i32 1, ptr %3, align 4
  store i32 1, ptr %7, align 4
  br label %44

16:                                               ; preds = %2
  %17 = load ptr, ptr @moduleCommandFilters, align 8, !tbaa !327
  %18 = load ptr, ptr %5, align 8, !tbaa !449
  %19 = call ptr @listSearchKey(ptr noundef %17, ptr noundef %18)
  store ptr %19, ptr %6, align 8, !tbaa !448
  %20 = load ptr, ptr %6, align 8, !tbaa !448
  %21 = icmp ne ptr %20, null
  br i1 %21, label %23, label %22

22:                                               ; preds = %16
  store i32 1, ptr %3, align 4
  store i32 1, ptr %7, align 4
  br label %44

23:                                               ; preds = %16
  %24 = load ptr, ptr @moduleCommandFilters, align 8, !tbaa !327
  %25 = load ptr, ptr %6, align 8, !tbaa !448
  call void @listDelNode(ptr noundef %24, ptr noundef %25)
  %26 = load ptr, ptr %4, align 8, !tbaa !13
  %27 = getelementptr inbounds nuw %struct.RedisModuleCtx, ptr %26, i32 0, i32 1
  %28 = load ptr, ptr %27, align 8, !tbaa !102
  %29 = getelementptr inbounds nuw %struct.RedisModule, ptr %28, i32 0, i32 7
  %30 = load ptr, ptr %29, align 8, !tbaa !269
  %31 = load ptr, ptr %5, align 8, !tbaa !449
  %32 = call ptr @listSearchKey(ptr noundef %30, ptr noundef %31)
  store ptr %32, ptr %6, align 8, !tbaa !448
  %33 = load ptr, ptr %6, align 8, !tbaa !448
  %34 = icmp ne ptr %33, null
  br i1 %34, label %36, label %35

35:                                               ; preds = %23
  store i32 1, ptr %3, align 4
  store i32 1, ptr %7, align 4
  br label %44

36:                                               ; preds = %23
  %37 = load ptr, ptr %4, align 8, !tbaa !13
  %38 = getelementptr inbounds nuw %struct.RedisModuleCtx, ptr %37, i32 0, i32 1
  %39 = load ptr, ptr %38, align 8, !tbaa !102
  %40 = getelementptr inbounds nuw %struct.RedisModule, ptr %39, i32 0, i32 7
  %41 = load ptr, ptr %40, align 8, !tbaa !269
  %42 = load ptr, ptr %6, align 8, !tbaa !448
  call void @listDelNode(ptr noundef %41, ptr noundef %42)
  %43 = load ptr, ptr %5, align 8, !tbaa !449
  call void @zfree(ptr noundef %43)
  store i32 0, ptr %3, align 4
  store i32 1, ptr %7, align 4
  br label %44

44:                                               ; preds = %36, %35, %22, %15
  call void @llvm.lifetime.end.p0(i64 8, ptr %6) #15
  %45 = load i32, ptr %3, align 4
  ret i32 %45
}