; Function Attrs: nounwind uwtable
define dso_local range(i32 0, 2) i32 @RM_UnregisterCommandFilter(ptr noundef readonly captures(none) %0, ptr noundef %1) #0 {
  %3 = load ptr, ptr %1, align 8, !tbaa !377
  %4 = getelementptr inbounds nuw i8, ptr %0, i64 8
  %5 = load ptr, ptr %4, align 8, !tbaa !91
  %.not = icmp eq ptr %3, %5
  br i1 %.not, label %6, label %19

6:                                                ; preds = %2
  %7 = load ptr, ptr @moduleCommandFilters, align 8, !tbaa !369
  %8 = tail call ptr @listSearchKey(ptr noundef %7, ptr noundef nonnull %1) #35
  %.not13 = icmp eq ptr %8, null
  br i1 %.not13, label %19, label %9

9:                                                ; preds = %6
  %10 = load ptr, ptr @moduleCommandFilters, align 8, !tbaa !369
  tail call void @listDelNode(ptr noundef %10, ptr noundef nonnull %8) #35
  %11 = load ptr, ptr %4, align 8, !tbaa !91
  %12 = getelementptr inbounds nuw i8, ptr %11, i64 48
  %13 = load ptr, ptr %12, align 8, !tbaa !250
  %14 = tail call ptr @listSearchKey(ptr noundef %13, ptr noundef nonnull %1) #35
  %.not14 = icmp eq ptr %14, null
  br i1 %.not14, label %19, label %15

15:                                               ; preds = %9
  %16 = load ptr, ptr %4, align 8, !tbaa !91
  %17 = getelementptr inbounds nuw i8, ptr %16, i64 48
  %18 = load ptr, ptr %17, align 8, !tbaa !250
  tail call void @listDelNode(ptr noundef %18, ptr noundef nonnull %14) #35
  tail call void @zfree(ptr noundef nonnull %1) #35
  br label %19

19:                                               ; preds = %9, %6, %2, %15
  %.0 = phi i32 [ 0, %15 ], [ 1, %2 ], [ 1, %6 ], [ 1, %9 ]
  ret i32 %.0
}